
phase2.o：     文件格式 elf64-x86-64

Contents of section .text:
 0000 f30f1efa 554889e5 488d3d00 000000e8  ....UH..H.=.....
 0010 00000000 905dc3f3 0f1efa55 4889e589  .....].....UH...
 0020 7dfc9090 90909090 90909090 90909090  }...............
 0030 90909090 905dc3                      .....].         
Contents of section .rodata:
 0000 6d796675 6e632069 73206361 6c6c6564  myfunc is called
 0010 2e20476f 6f642100                    . Good!.        
Contents of section .data.rel.local:
 0000 00000000 00000000                    ........        
Contents of section .comment:
 0000 00474343 3a202855 62756e74 7520392e  .GCC: (Ubuntu 9.
 0010 342e302d 31756275 6e747531 7e32302e  4.0-1ubuntu1~20.
 0020 30342e32 2920392e 342e3000           04.2) 9.4.0.    
Contents of section .note.gnu.property:
 0000 04000000 10000000 05000000 474e5500  ............GNU.
 0010 020000c0 04000000 03000000 00000000  ................
Contents of section .eh_frame:
 0000 14000000 00000000 017a5200 01781001  .........zR..x..
 0010 1b0c0708 90010000 1c000000 1c000000  ................
 0020 00000000 17000000 00450e10 8602430d  .........E....C.
 0030 064e0c07 08000000 1c000000 3c000000  .N..........<...
 0040 00000000 20000000 00450e10 8602430d  .... ....E....C.
 0050 06570c07 08000000                    .W......        

Disassembly of section .text:

0000000000000000 <myfunc>:
   0:	f3 0f 1e fa          	endbr64
   4:	55                   	push   %rbp
   5:	48 89 e5             	mov    %rsp,%rbp
   8:	48 8d 3d 00 00 00 00 	lea    0x0(%rip),%rdi        # f <myfunc+0xf>
   f:	e8 00 00 00 00       	call   14 <myfunc+0x14>
  14:	90                   	nop
  15:	5d                   	pop    %rbp
  16:	c3                   	ret

0000000000000017 <do_phase>:
  17:	f3 0f 1e fa          	endbr64
  1b:	55                   	push   %rbp
  1c:	48 89 e5             	mov    %rsp,%rbp
  1f:	89 7d fc             	mov    %edi,-0x4(%rbp)
  22:	90                   	nop
  23:	90                   	nop
  24:	90                   	nop
  25:	90                   	nop
  26:	90                   	nop
  27:	90                   	nop
  28:	90                   	nop
  29:	90                   	nop
  2a:	90                   	nop
  2b:	90                   	nop
  2c:	90                   	nop
  2d:	90                   	nop
  2e:	90                   	nop
  2f:	90                   	nop
  30:	90                   	nop
  31:	90                   	nop
  32:	90                   	nop
  33:	90                   	nop
  34:	90                   	nop
  35:	5d                   	pop    %rbp
  36:	c3                   	ret
